EXPORTS
    SDL_main @1
    _ZN10CAnimation12SetFrameRateEi @2
    _ZN10CAnimation15GetCurrentFrameEv @3
    _ZN10CAnimation15SetCurrentFrameEi @4
    _ZN10CAnimation5onHitEv @5
    _ZN10CAnimation9OnAnimateEv @6
    _ZN10CAnimationC1Ev @7
    _ZN10CAnimationC2Ev @8
    _ZN4CApp10addPokemonEi @9
    _ZN4CApp11OnMouseMoveEiiiibbb @10
    _ZN4CApp11findElementEii @11
    _ZN4CApp12loadSurfacesEv @12
    _ZN4CApp13OnLButtonDownEii @13
    _ZN4CApp13displayBattleEv @14
    _ZN4CApp13drawYourStatsEv @15
    _ZN4CApp13fetchMoveDataEv @16
    _ZN4CApp16moveOverlayLogicEii @17
    _ZN4CApp17figurePokemonTypeEi @18
    _ZN4CApp18atInitiateLocationEii @19
    _ZN4CApp18drawMovesInButtonsEv @20
    _ZN4CApp18drawOpponentsStatsEv @21
    _ZN4CApp18figureElementLabelESsi @22
    _ZN4CApp18switchPokemonLogicEii @23
    _ZN4CApp18welcomeScreenLogicEii @24
    _ZN4CApp20displaySelectElementEi @25
    _ZN4CApp23drawPokemonInSelectionsEv @26
    _ZN4CApp28displayHoveredElementTooltipEi @27
    _ZN4CApp6OnExitEv @28
    _ZN4CApp6OnInitEv @29
    _ZN4CApp6OnLoopEv @30
    _ZN4CApp7OnEventEP9SDL_Event @31
    _ZN4CApp8OnRenderEv @32
    _ZN4CApp9OnCleanupEv @33
    _ZN4CApp9OnExecuteEv @34
    _ZN4CAppC1Ev @35
    _ZN4CAppC2Ev @36
    _ZN4CAppD0Ev @37
    _ZN4CAppD1Ev @38
    _ZN4Move10getElementEv @39
    _ZN4Move11moveDataSetE @40 DATA
    _ZN4Move14isHitsMultipleEv @41
    _ZN4Move15isSpecialAttackEv @42
    _ZN4Move16getPriorityLevelEv @43
    _ZN4Move5getIDEv @44
    _ZN4Move7getNameEv @45
    _ZN4Move8getBasePEv @46
    _ZN4Move9moveNamesE @47 DATA
    _ZN4MoveC1ESs @48
    _ZN4MoveC1Eibbiii @49
    _ZN4MoveC1Ev @50
    _ZN4MoveC2ESs @51
    _ZN4MoveC2Eibbiii @52
    _ZN4MoveC2Ev @53
    _ZN6Battle10figureMod1EP7Pokemoni @54
    _ZN6Battle11beginBattleEv @55
    _ZN6Battle11planPlayer1Ev @56
    _ZN6Battle11planPlayer2Ev @57
    _ZN6Battle12figureDamageEi @58
    _ZN6Battle15executePokemon1Ev @59
    _ZN6Battle15executePokemon2Ev @60
    _ZN6Battle19executeSimultaniousEv @61
    _ZN6BattleC1EP6PlayerS1_ @62
    _ZN6BattleC2EP6PlayerS1_ @63
    _ZN6CEvent10OnMinimizeEv @64
    _ZN6CEvent11OnInputBlurEv @65
    _ZN6CEvent11OnLButtonUpEii @66
    _ZN6CEvent11OnMButtonUpEii @67
    _ZN6CEvent11OnMouseBlurEv @68
    _ZN6CEvent11OnMouseMoveEiiiibbb @69
    _ZN6CEvent11OnRButtonUpEii @70
    _ZN6CEvent12OnInputFocusEv @71
    _ZN6CEvent12OnMouseFocusEv @72
    _ZN6CEvent12OnMouseWheelEbb @73
    _ZN6CEvent13OnJoyButtonUpEhh @74
    _ZN6CEvent13OnLButtonDownEii @75
    _ZN6CEvent13OnMButtonDownEii @76
    _ZN6CEvent13OnRButtonDownEii @77
    _ZN6CEvent15OnJoyButtonDownEhh @78
    _ZN6CEvent6OnExitEv @79
    _ZN6CEvent6OnUserEhiPvS0_ @80
    _ZN6CEvent7OnEventEP9SDL_Event @81
    _ZN6CEvent7OnKeyUpE6SDLKey6SDLModt @82
    _ZN6CEvent8OnExposeEv @83
    _ZN6CEvent8OnJoyHatEhhh @84
    _ZN6CEvent8OnResizeEii @85
    _ZN6CEvent9OnJoyAxisEhhs @86
    _ZN6CEvent9OnJoyBallEhhss @87
    _ZN6CEvent9OnKeyDownE6SDLKey6SDLModt @88
    _ZN6CEvent9OnRestoreEv @89
    _ZN6CEventC1Ev @90
    _ZN6CEventC2Ev @91
    _ZN6CEventD0Ev @92
    _ZN6CEventD1Ev @93
    _ZN6CEventD2Ev @94
    _ZN6Player10chooseMoveEv @95
    _ZN6Player11getMoveUsedEv @96
    _ZN6Player16getActivePokemonEv @97
    _ZN6Player16setActivePokemonEi @98
    _ZN6PlayerC1Ev @99
    _ZN6PlayerC2Ev @100
    _ZN7Pokemon10getDefenseEv @101
    _ZN7Pokemon10getElementEv @102
    _ZN7Pokemon10getSAttackEv @103
    _ZN7Pokemon10getStaminaEv @104
    _ZN7Pokemon10hasReflectEv @105
    _ZN7Pokemon10setStaminaEi @106
    _ZN7Pokemon11getNicknameEv @107
    _ZN7Pokemon11getSDefenseEv @108
    _ZN7Pokemon13getMaxStaminaEv @109
    _ZN7Pokemon13isCriticalHitEv @110
    _ZN7Pokemon14hasLightScreenEv @111
    _ZN7Pokemon7getMoveEi @112
    _ZN7Pokemon8getSpeedEv @113
    _ZN7Pokemon8isBurnedEv @114
    _ZN7Pokemon8isSniperEv @115
    _ZN7Pokemon9getAttackEv @116
    _ZN7PokemonC1Ei @117
    _ZN7PokemonC1Ev @118
    _ZN7PokemonC2Ei @119
    _ZN7PokemonC2Ev @120
    _ZN8CSurface11TransparentEP11SDL_Surfaceiii @121
    _ZN8CSurface6OnDrawEP11SDL_SurfaceS1_ii @122
    _ZN8CSurface6OnDrawEP11SDL_SurfaceS1_iiiiii @123
    _ZN8CSurface6OnLoadEPc @124
    _ZN8CSurfaceC1Ev @125
    _ZN8CSurfaceC2Ev @126
    _ZNSt6vectorIP4MoveSaIS1_EE13_M_insert_auxEN9__gnu_cxx17__normal_iteratorIPS1_S3_EERKS1_ @127
    _ZNSt6vectorIP7PokemonSaIS1_EE13_M_insert_auxEN9__gnu_cxx17__normal_iteratorIPS1_S3_EERKS1_ @128
    _ZTI4CApp @129 DATA
    _ZTI6CEvent @130 DATA
    _ZTS4CApp @131 DATA
    _ZTS6CEvent @132 DATA
    _ZTV4CApp @133 DATA
    _ZTV6CEvent @134 DATA
    _get_output_format @135
